; Function Attrs: mustprogress nofree norecurse nosync nounwind willreturn memory(read, inaccessiblemem: none) uwtable
define hidden noundef zeroext i1 @_ZNK4cvc58internal6theory5arith6linear14ArithVariables14hasEitherBoundEj(ptr nocapture noundef nonnull readonly align 8 dereferenceable(568) %this, i32 noundef %x) local_unnamed_addr #7 align 2 {
entry:
  %d_image.i.i = getelementptr inbounds i8, ptr %this, i64 48
  %conv.i.i = zext i32 %x to i64
  %0 = load ptr, ptr %d_image.i.i, align 8
  %d_lb.i = getelementptr inbounds %"class.cvc5::internal::theory::arith::linear::ArithVariables::VarInfo", ptr %0, i64 %conv.i.i, i32 3
  %1 = load ptr, ptr %d_lb.i, align 8
  %cmp.i.not = icmp eq ptr %1, null
  br i1 %cmp.i.not, label %lor.rhs, label %lor.end

lor.rhs:                                          ; preds = %entry
  %d_ub.i = getelementptr inbounds %"class.cvc5::internal::theory::arith::linear::ArithVariables::VarInfo", ptr %0, i64 %conv.i.i, i32 4
  %2 = load ptr, ptr %d_ub.i, align 8
  %cmp.i4 = icmp ne ptr %2, null
  br label %lor.end

lor.end:                                          ; preds = %lor.rhs, %entry
  %3 = phi i1 [ true, %entry ], [ %cmp.i4, %lor.rhs ]
  ret i1 %3
}